; Function Attrs: mustprogress uwtable
define noundef range(i32 -22, 1) i32 @_Z17fdt_parse_pmp_numPKviPm(ptr noundef %0, i32 noundef %1, ptr noundef writeonly captures(address_is_null) %2) local_unnamed_addr #3 {
  %4 = alloca i32, align 4
  %5 = alloca i32, align 4
  call void @llvm.lifetime.start.p0(i64 4, ptr nonnull %5) #22
  %6 = icmp eq ptr %0, null
  %7 = icmp slt i32 %1, 0
  %or.cond.i = or i1 %6, %7
  br i1 %or.cond.i, label %_ZL14check_cpu_nodePKvi.exit.thread, label %8

8:                                                ; preds = %3
  %9 = call ptr @fdt_getprop(ptr noundef nonnull %0, i32 noundef %1, ptr noundef nonnull @.str.50, ptr noundef nonnull %5)
  %10 = icmp ne ptr %9, null
  %11 = load i32, ptr %5, align 4
  %12 = icmp ne i32 %11, 0
  %or.cond3.i = select i1 %10, i1 %12, i1 false
  br i1 %or.cond3.i, label %sub_0.i, label %_ZL14check_cpu_nodePKvi.exit.thread

sub_0.i:                                          ; preds = %8
  %13 = load i8, ptr %9, align 1
  %.not12.i = icmp eq i8 %13, 99
  br i1 %.not12.i, label %sub_1.i, label %_ZL14check_cpu_nodePKvi.exit.thread

sub_1.i:                                          ; preds = %sub_0.i
  %14 = getelementptr inbounds nuw i8, ptr %9, i64 1
  %15 = load i8, ptr %14, align 1
  %.not13.i = icmp eq i8 %15, 112
  br i1 %.not13.i, label %sub_2.i, label %_ZL14check_cpu_nodePKvi.exit.thread

sub_2.i:                                          ; preds = %sub_1.i
  %16 = getelementptr inbounds nuw i8, ptr %9, i64 2
  %17 = load i8, ptr %16, align 1
  %18 = icmp eq i8 %17, 117
  br i1 %18, label %19, label %_ZL14check_cpu_nodePKvi.exit.thread

_ZL14check_cpu_nodePKvi.exit.thread:              ; preds = %3, %8, %sub_0.i, %sub_1.i, %sub_2.i
  call void @llvm.lifetime.end.p0(i64 4, ptr nonnull %5) #22
  br label %38

19:                                               ; preds = %sub_2.i
  call void @llvm.lifetime.end.p0(i64 4, ptr nonnull %5) #22
  call void @llvm.lifetime.start.p0(i64 4, ptr nonnull %4) #22
  %20 = call i32 @fdt_parent_offset(ptr noundef nonnull %0, i32 noundef %1)
  %21 = icmp slt i32 %20, 0
  br i1 %21, label %_Z22fdt_get_node_addr_sizePKviPmS1_PKc.exit, label %22

22:                                               ; preds = %19
  %23 = call i32 @fdt_address_cells(ptr noundef nonnull %0, i32 noundef %20)
  %24 = icmp slt i32 %23, 1
  br i1 %24, label %_Z22fdt_get_node_addr_sizePKviPmS1_PKc.exit, label %25

25:                                               ; preds = %22
  %26 = call i32 @fdt_size_cells(ptr noundef nonnull %0, i32 noundef %20)
  %27 = icmp slt i32 %26, 0
  br i1 %27, label %_Z22fdt_get_node_addr_sizePKviPmS1_PKc.exit, label %28

28:                                               ; preds = %25
  %29 = call ptr @fdt_getprop(ptr noundef nonnull %0, i32 noundef %1, ptr noundef nonnull @.str.33, ptr noundef nonnull %4)
  %.not46.i = icmp eq ptr %29, null
  br i1 %.not46.i, label %_Z22fdt_get_node_addr_sizePKviPmS1_PKc.exit, label %30

30:                                               ; preds = %28
  %.not47.i = icmp eq ptr %2, null
  br i1 %.not47.i, label %_Z22fdt_get_node_addr_sizePKviPmS1_PKc.exit, label %.lr.ph.i

.lr.ph.i:                                         ; preds = %30, %.lr.ph.i
  %.053.i = phi i64 [ %35, %.lr.ph.i ], [ 0, %30 ]
  %.03452.i = phi ptr [ %32, %.lr.ph.i ], [ %29, %30 ]
  %.03651.i = phi i32 [ %36, %.lr.ph.i ], [ 0, %30 ]
  %31 = shl i64 %.053.i, 32
  %32 = getelementptr inbounds nuw i8, ptr %.03452.i, i64 4
  %33 = load i32, ptr %.03452.i, align 4, !tbaa !95
  %rev.i.i = call noundef i32 @llvm.bswap.i32(i32 %33)
  %34 = zext i32 %rev.i.i to i64
  %35 = or disjoint i64 %31, %34
  %36 = add nuw nsw i32 %.03651.i, 1
  %exitcond.not.i = icmp eq i32 %36, %23
  br i1 %exitcond.not.i, label %._crit_edge.i, label %.lr.ph.i, !llvm.loop !105

._crit_edge.i:                                    ; preds = %.lr.ph.i
  store i64 %35, ptr %2, align 8, !tbaa !52
  br label %_Z22fdt_get_node_addr_sizePKviPmS1_PKc.exit

_Z22fdt_get_node_addr_sizePKviPmS1_PKc.exit:      ; preds = %30, %._crit_edge.i, %19, %22, %25, %28
  %.035.i = phi i1 [ false, %19 ], [ false, %22 ], [ false, %25 ], [ false, %28 ], [ true, %._crit_edge.i ], [ true, %30 ]
  call void @llvm.lifetime.end.p0(i64 4, ptr nonnull %4) #22
  %37 = icmp ne ptr %2, null
  %or.cond = and i1 %37, %.035.i
  %. = select i1 %or.cond, i32 0, i32 -19
  br label %38

38:                                               ; preds = %_ZL14check_cpu_nodePKvi.exit.thread, %_Z22fdt_get_node_addr_sizePKviPmS1_PKc.exit
  %.0 = phi i32 [ %., %_Z22fdt_get_node_addr_sizePKviPmS1_PKc.exit ], [ -22, %_ZL14check_cpu_nodePKvi.exit.thread ]
  ret i32 %.0
}